; Function Attrs: mustprogress nofree norecurse nosync nounwind willreturn memory(read, inaccessiblemem: none) uwtable
define noundef ptr @_ZNK3gmx19TopologyInformation4nameEv(ptr nocapture noundef nonnull readonly align 8 dereferenceable(128) %0) local_unnamed_addr #12 align 2 {
  %2 = getelementptr inbounds i8, ptr %0, i64 8
  %3 = load i8, ptr %2, align 8
  %4 = trunc i8 %3 to i1
  br i1 %4, label %5, label %10

5:                                                ; preds = %1
  %6 = load ptr, ptr %0, align 8
  %7 = load ptr, ptr %6, align 8
  %.not = icmp eq ptr %7, null
  br i1 %.not, label %10, label %8

8:                                                ; preds = %5
  %9 = load ptr, ptr %7, align 8
  br label %10

10:                                               ; preds = %1, %5, %8
  %.0 = phi ptr [ %9, %8 ], [ null, %5 ], [ null, %1 ]
  ret ptr %.0
}